target datalayout = "e-m:e-p270:32:32-p271:32:32-p272:64:64-i64:64-i128:128-f80:128-n8:16:32:64-S128"
target triple = "x86_64-pc-linux-gnu"

; Function Attrs: nounwind uwtable
define internal i32 @abs_diff(i32 noundef %0, i32 noundef %1) #0 {
  %3 = alloca i32, align 4
  %4 = alloca i32, align 4
  store i32 %0, ptr %3, align 4
  store i32 %1, ptr %4, align 4
  %5 = load i32, ptr %3, align 4
  %6 = load i32, ptr %4, align 4
  %7 = icmp sgt i32 %5, %6
  br i1 %7, label %8, label %12

8:                                                ; preds = %2
  %9 = load i32, ptr %3, align 4
  %10 = load i32, ptr %4, align 4
  %11 = sub nsw i32 %9, %10
  br label %16

12:                                               ; preds = %2
  %13 = load i32, ptr %4, align 4
  %14 = load i32, ptr %3, align 4
  %15 = sub nsw i32 %13, %14
  br label %16

16:                                               ; preds = %12, %8
  %17 = phi i32 [ %11, %8 ], [ %15, %12 ]
  ret i32 %17
}

; Function Attrs: nounwind uwtable
define internal zeroext i16 @paeth_predictor_single(i16 noundef zeroext %0, i16 noundef zeroext %1, i16 noundef zeroext %2) #0 {
  %4 = alloca i16, align 2
  %5 = alloca i16, align 2
  %6 = alloca i16, align 2
  %7 = alloca i32, align 4
  %8 = alloca i32, align 4
  %9 = alloca i32, align 4
  %10 = alloca i32, align 4
  store i16 %0, ptr %4, align 2
  store i16 %1, ptr %5, align 2
  store i16 %2, ptr %6, align 2
  %11 = load i16, ptr %5, align 2
  %12 = zext i16 %11 to i32
  %13 = load i16, ptr %4, align 2
  %14 = zext i16 %13 to i32
  %15 = add nsw i32 %12, %14
  %16 = load i16, ptr %6, align 2
  %17 = zext i16 %16 to i32
  %18 = sub nsw i32 %15, %17
  store i32 %18, ptr %7, align 4
  %19 = load i32, ptr %7, align 4
  %20 = load i16, ptr %4, align 2
  %21 = zext i16 %20 to i32
  %22 = call i32 @abs_diff(i32 noundef %19, i32 noundef %21)
  store i32 %22, ptr %8, align 4
  %23 = load i32, ptr %7, align 4
  %24 = load i16, ptr %5, align 2
  %25 = zext i16 %24 to i32
  %26 = call i32 @abs_diff(i32 noundef %23, i32 noundef %25)
  store i32 %26, ptr %9, align 4
  %27 = load i32, ptr %7, align 4
  %28 = load i16, ptr %6, align 2
  %29 = zext i16 %28 to i32
  %30 = call i32 @abs_diff(i32 noundef %27, i32 noundef %29)
  store i32 %30, ptr %10, align 4
  %31 = load i32, ptr %8, align 4
  %32 = load i32, ptr %9, align 4
  %33 = icmp sle i32 %31, %32
  br i1 %33, label %34, label %41

34:                                               ; preds = %3
  %35 = load i32, ptr %8, align 4
  %36 = load i32, ptr %10, align 4
  %37 = icmp sle i32 %35, %36
  br i1 %37, label %38, label %41

38:                                               ; preds = %34
  %39 = load i16, ptr %4, align 2
  %40 = zext i16 %39 to i32
  br label %53

41:                                               ; preds = %34, %3
  %42 = load i32, ptr %9, align 4
  %43 = load i32, ptr %10, align 4
  %44 = icmp sle i32 %42, %43
  br i1 %44, label %45, label %48

45:                                               ; preds = %41
  %46 = load i16, ptr %5, align 2
  %47 = zext i16 %46 to i32
  br label %51

48:                                               ; preds = %41
  %49 = load i16, ptr %6, align 2
  %50 = zext i16 %49 to i32
  br label %51

51:                                               ; preds = %48, %45
  %52 = phi i32 [ %47, %45 ], [ %50, %48 ]
  br label %53

53:                                               ; preds = %51, %38
  %54 = phi i32 [ %40, %38 ], [ %52, %51 ]
  %55 = trunc i32 %54 to i16
  ret i16 %55
}

; Function Attrs: nounwind uwtable
define internal void @paeth_predictor(ptr noundef %0, i64 noundef %1, i32 noundef %2, i32 noundef %3, ptr noundef %4, ptr noundef %5) #0 {
  %7 = alloca ptr, align 8
  %8 = alloca i64, align 8
  %9 = alloca i32, align 4
  %10 = alloca i32, align 4
  %11 = alloca ptr, align 8
  %12 = alloca ptr, align 8
  %13 = alloca i32, align 4
  %14 = alloca i32, align 4
  %15 = alloca i8, align 1
  store ptr %0, ptr %7, align 8
  store i64 %1, ptr %8, align 8
  store i32 %2, ptr %9, align 4
  store i32 %3, ptr %10, align 4
  store ptr %4, ptr %11, align 8
  store ptr %5, ptr %12, align 8
  %16 = load ptr, ptr %11, align 8
  %17 = getelementptr inbounds i8, ptr %16, i64 -1
  %18 = load i8, ptr %17, align 1
  store i8 %18, ptr %15, align 1
  store i32 0, ptr %13, align 4
  br label %19

19:                                               ; preds = %56, %6
  %20 = load i32, ptr %13, align 4
  %21 = load i32, ptr %10, align 4
  %22 = icmp slt i32 %20, %21
  br i1 %22, label %23, label %59

23:                                               ; preds = %19
  store i32 0, ptr %14, align 4
  br label %24

24:                                               ; preds = %49, %23
  %25 = load i32, ptr %14, align 4
  %26 = load i32, ptr %9, align 4
  %27 = icmp slt i32 %25, %26
  br i1 %27, label %28, label %52

28:                                               ; preds = %24
  %29 = load ptr, ptr %12, align 8
  %30 = load i32, ptr %13, align 4
  %31 = sext i32 %30 to i64
  %32 = getelementptr inbounds i8, ptr %29, i64 %31
  %33 = load i8, ptr %32, align 1
  %34 = zext i8 %33 to i16
  %35 = load ptr, ptr %11, align 8
  %36 = load i32, ptr %14, align 4
  %37 = sext i32 %36 to i64
  %38 = getelementptr inbounds i8, ptr %35, i64 %37
  %39 = load i8, ptr %38, align 1
  %40 = zext i8 %39 to i16
  %41 = load i8, ptr %15, align 1
  %42 = zext i8 %41 to i16
  %43 = call zeroext i16 @paeth_predictor_single(i16 noundef zeroext %34, i16 noundef zeroext %40, i16 noundef zeroext %42)
  %44 = trunc i16 %43 to i8
  %45 = load ptr, ptr %7, align 8
  %46 = load i32, ptr %14, align 4
  %47 = sext i32 %46 to i64
  %48 = getelementptr inbounds i8, ptr %45, i64 %47
  store i8 %44, ptr %48, align 1
  br label %49

49:                                               ; preds = %28
  %50 = load i32, ptr %14, align 4
  %51 = add nsw i32 %50, 1
  store i32 %51, ptr %14, align 4
  br label %24, !llvm.loop !33

52:                                               ; preds = %24
  %53 = load i64, ptr %8, align 8
  %54 = load ptr, ptr %7, align 8
  %55 = getelementptr inbounds i8, ptr %54, i64 %53
  store ptr %55, ptr %7, align 8
  br label %56

56:                                               ; preds = %52
  %57 = load i32, ptr %13, align 4
  %58 = add nsw i32 %57, 1
  store i32 %58, ptr %13, align 4
  br label %19, !llvm.loop !34

59:                                               ; preds = %19
  ret void
}

; Function Attrs: nounwind uwtable
define hidden void @aom_paeth_predictor_4x8_c(ptr noundef %0, i64 noundef %1, ptr noundef %2, ptr noundef %3) #0 {
  %5 = alloca ptr, align 8
  %6 = alloca i64, align 8
  %7 = alloca ptr, align 8
  %8 = alloca ptr, align 8
  store ptr %0, ptr %5, align 8
  store i64 %1, ptr %6, align 8
  store ptr %2, ptr %7, align 8
  store ptr %3, ptr %8, align 8
  %9 = load ptr, ptr %5, align 8
  %10 = load i64, ptr %6, align 8
  %11 = load ptr, ptr %7, align 8
  %12 = load ptr, ptr %8, align 8
  call void @paeth_predictor(ptr noundef %9, i64 noundef %10, i32 noundef 4, i32 noundef 8, ptr noundef %11, ptr noundef %12)
  ret void
}