; Function Attrs: nofree norecurse nosync nounwind memory(argmem: readwrite) uwtable
define hidden void @aom_paeth_predictor_4x8_c(ptr nocapture noundef writeonly %0, i64 noundef %1, ptr nocapture noundef readonly %2, ptr nocapture noundef readonly %3) local_unnamed_addr #0 {
  %5 = getelementptr inbounds i8, ptr %2, i64 -1
  %6 = load i8, ptr %5, align 1
  %7 = zext i8 %6 to i32
  br label %.preheader.us.i

.preheader.us.i:                                  ; preds = %._crit_edge.us.i, %4
  %indvars.iv24.i = phi i64 [ 0, %4 ], [ %indvars.iv.next25.i, %._crit_edge.us.i ]
  %.020.us.i = phi ptr [ %0, %4 ], [ %23, %._crit_edge.us.i ]
  %8 = getelementptr inbounds i8, ptr %3, i64 %indvars.iv24.i
  br label %9

9:                                                ; preds = %9, %.preheader.us.i
  %indvars.iv.i = phi i64 [ 0, %.preheader.us.i ], [ %indvars.iv.next.i, %9 ]
  %10 = load i8, ptr %8, align 1
  %11 = getelementptr inbounds i8, ptr %2, i64 %indvars.iv.i
  %12 = load i8, ptr %11, align 1
  %13 = zext i8 %12 to i32
  %14 = zext i8 %10 to i32
  %15 = sub nsw i32 %14, %7
  %16 = add nsw i32 %15, %13
  %17 = sub nsw i32 %16, %14
  %18 = tail call range(i32 0, 131071) i32 @llvm.abs.i32(i32 %17, i1 true)
  %19 = tail call range(i32 0, 131071) i32 @llvm.abs.i32(i32 %15, i1 true)
  %20 = sub nsw i32 %16, %7
  %21 = tail call range(i32 0, 131071) i32 @llvm.abs.i32(i32 %20, i1 true)
  %.not.i.us.i = icmp ugt i32 %18, %19
  %.not18.i.us.i = icmp ugt i32 %18, %21
  %or.cond.i.us.i = select i1 %.not.i.us.i, i1 true, i1 %.not18.i.us.i
  %.not19.i.us.i = icmp ugt i32 %19, %21
  %.v.us.i = select i1 %.not19.i.us.i, i8 %6, i8 %12
  %.v17.us.i = select i1 %or.cond.i.us.i, i8 %.v.us.i, i8 %10
  %22 = getelementptr inbounds i8, ptr %.020.us.i, i64 %indvars.iv.i
  store i8 %.v17.us.i, ptr %22, align 1
  %indvars.iv.next.i = add nuw nsw i64 %indvars.iv.i, 1
  %exitcond.not.i = icmp eq i64 %indvars.iv.next.i, 4
  br i1 %exitcond.not.i, label %._crit_edge.us.i, label %9, !llvm.loop !33

._crit_edge.us.i:                                 ; preds = %9
  %23 = getelementptr inbounds i8, ptr %.020.us.i, i64 %1
  %indvars.iv.next25.i = add nuw nsw i64 %indvars.iv24.i, 1
  %exitcond28.not.i = icmp eq i64 %indvars.iv.next25.i, 8
  br i1 %exitcond28.not.i, label %paeth_predictor.exit, label %.preheader.us.i, !llvm.loop !34

paeth_predictor.exit:                             ; preds = %._crit_edge.us.i
  ret void
}